; Function Attrs: nounwind uwtable
define dso_local noundef i64 @spg_kd_choose(ptr noundef readonly captures(none) %0) local_unnamed_addr #2 {
  %2 = getelementptr inbounds nuw i8, ptr %0, i64 32
  %3 = load i64, ptr %2, align 8
  %4 = inttoptr i64 %3 to ptr
  %5 = getelementptr inbounds nuw i8, ptr %4, i64 20
  %6 = load i8, ptr %5, align 4, !range !4, !noundef !5
  %7 = trunc nuw i8 %6 to i1
  br i1 %7, label %8, label %11

8:                                                ; preds = %1
  %9 = tail call zeroext i1 @errstart_cold(i32 noundef 21, ptr noundef null) #8
  tail call void @llvm.assume(i1 %9)
  %10 = tail call i32 (ptr, ...) @errmsg_internal(ptr noundef nonnull @.str) #9
  tail call void @errfinish(ptr noundef nonnull @.str.1, i32 noundef 62, ptr noundef nonnull @__func__.spg_kd_choose) #9
  unreachable

11:                                               ; preds = %1
  %12 = load i64, ptr %4, align 8
  %13 = inttoptr i64 %12 to ptr
  %14 = getelementptr inbounds nuw i8, ptr %0, i64 48
  %15 = load i64, ptr %14, align 8
  %16 = inttoptr i64 %15 to ptr
  %17 = getelementptr inbounds nuw i8, ptr %4, i64 24
  %18 = load double, ptr %17, align 8
  store i32 1, ptr %16, align 8
  %19 = getelementptr inbounds nuw i8, ptr %4, i64 16
  %20 = load i32, ptr %19, align 8
  %21 = shl i32 %20, 3
  %22 = and i32 %21, 8
  %23 = xor i32 %22, 8
  %.in.idx.i = zext nneg i32 %23 to i64
  %.in.i = getelementptr inbounds nuw i8, ptr %13, i64 %.in.idx.i
  %24 = load double, ptr %.in.i, align 8
  %25 = fcmp ule double %18, %24
  %26 = zext i1 %25 to i32
  %27 = getelementptr inbounds nuw i8, ptr %16, i64 8
  store i32 %26, ptr %27, align 8
  %28 = getelementptr inbounds nuw i8, ptr %16, i64 12
  store i32 1, ptr %28, align 4
  %29 = getelementptr inbounds nuw i8, ptr %16, i64 16
  store i64 %12, ptr %29, align 8
  ret i64 0
}